target datalayout = "e-m:e-p270:32:32-p271:32:32-p272:64:64-i64:64-i128:128-f80:128-n8:16:32:64-S128"
target triple = "x86_64-pc-linux-gnu"

; Function Attrs: nounwind uwtable
define internal i64 @diff2nd(i32 noundef %0, i32 noundef %1, ptr noundef %2, ptr noundef %3, ptr noundef %4, i32 noundef %5) #0 {
  %7 = alloca i32, align 4
  %8 = alloca i32, align 4
  %9 = alloca ptr, align 8
  %10 = alloca ptr, align 8
  %11 = alloca ptr, align 8
  %12 = alloca i32, align 4
  %13 = alloca i64, align 8
  %14 = alloca i32, align 4
  %15 = alloca i32, align 4
  %16 = alloca i32, align 4
  %17 = alloca i32, align 4
  store i32 %0, ptr %7, align 4, !tbaa !36
  store i32 %1, ptr %8, align 4, !tbaa !36
  store ptr %2, ptr %9, align 8, !tbaa !39
  store ptr %3, ptr %10, align 8, !tbaa !39
  store ptr %4, ptr %11, align 8, !tbaa !39
  store i32 %5, ptr %12, align 4, !tbaa !36
  call void @llvm.lifetime.start.p0(i64 8, ptr %13) #12
  store i64 0, ptr %13, align 8, !tbaa !84
  call void @llvm.lifetime.start.p0(i64 4, ptr %14) #12
  store i32 0, ptr %14, align 4, !tbaa !36
  br label %18

18:                                               ; preds = %335, %6
  %19 = load i32, ptr %14, align 4, !tbaa !36
  %20 = load i32, ptr %8, align 4, !tbaa !36
  %21 = icmp ult i32 %19, %20
  br i1 %21, label %23, label %22

22:                                               ; preds = %18
  store i32 2, ptr %15, align 4
  call void @llvm.lifetime.end.p0(i64 4, ptr %14) #12
  br label %338

23:                                               ; preds = %18
  call void @llvm.lifetime.start.p0(i64 4, ptr %16) #12
  store i32 0, ptr %16, align 4, !tbaa !36
  br label %24

24:                                               ; preds = %331, %23
  %25 = load i32, ptr %16, align 4, !tbaa !36
  %26 = load i32, ptr %7, align 4, !tbaa !36
  %27 = icmp ult i32 %25, %26
  br i1 %27, label %29, label %28

28:                                               ; preds = %24
  store i32 5, ptr %15, align 4
  call void @llvm.lifetime.end.p0(i64 4, ptr %16) #12
  br label %334

29:                                               ; preds = %24
  call void @llvm.lifetime.start.p0(i64 4, ptr %17) #12
  %30 = load ptr, ptr %9, align 8, !tbaa !39
  %31 = load i32, ptr %14, align 4, !tbaa !36
  %32 = load i32, ptr %12, align 4, !tbaa !36
  %33 = mul i32 %31, %32
  %34 = load i32, ptr %16, align 4, !tbaa !36
  %35 = add i32 %33, %34
  %36 = zext i32 %35 to i64
  %37 = getelementptr inbounds nuw i16, ptr %30, i64 %36
  %38 = load i16, ptr %37, align 2, !tbaa !85
  %39 = sext i16 %38 to i32
  %40 = load ptr, ptr %9, align 8, !tbaa !39
  %41 = load i32, ptr %14, align 4, !tbaa !36
  %42 = load i32, ptr %12, align 4, !tbaa !36
  %43 = mul i32 %41, %42
  %44 = load i32, ptr %16, align 4, !tbaa !36
  %45 = add i32 %43, %44
  %46 = add i32 %45, 1
  %47 = zext i32 %46 to i64
  %48 = getelementptr inbounds nuw i16, ptr %40, i64 %47
  %49 = load i16, ptr %48, align 2, !tbaa !85
  %50 = sext i16 %49 to i32
  %51 = add nsw i32 %39, %50
  %52 = load ptr, ptr %9, align 8, !tbaa !39
  %53 = load i32, ptr %14, align 4, !tbaa !36
  %54 = add i32 %53, 1
  %55 = load i32, ptr %12, align 4, !tbaa !36
  %56 = mul i32 %54, %55
  %57 = load i32, ptr %16, align 4, !tbaa !36
  %58 = add i32 %56, %57
  %59 = zext i32 %58 to i64
  %60 = getelementptr inbounds nuw i16, ptr %52, i64 %59
  %61 = load i16, ptr %60, align 2, !tbaa !85
  %62 = sext i16 %61 to i32
  %63 = add nsw i32 %51, %62
  %64 = load ptr, ptr %9, align 8, !tbaa !39
  %65 = load i32, ptr %14, align 4, !tbaa !36
  %66 = add i32 %65, 1
  %67 = load i32, ptr %12, align 4, !tbaa !36
  %68 = mul i32 %66, %67
  %69 = load i32, ptr %16, align 4, !tbaa !36
  %70 = add i32 %68, %69
  %71 = add i32 %70, 1
  %72 = zext i32 %71 to i64
  %73 = getelementptr inbounds nuw i16, ptr %64, i64 %72
  %74 = load i16, ptr %73, align 2, !tbaa !85
  %75 = sext i16 %74 to i32
  %76 = add nsw i32 %63, %75
  %77 = load ptr, ptr %10, align 8, !tbaa !39
  %78 = load i32, ptr %14, align 4, !tbaa !36
  %79 = load i32, ptr %12, align 4, !tbaa !36
  %80 = mul i32 %78, %79
  %81 = load i32, ptr %16, align 4, !tbaa !36
  %82 = add i32 %80, %81
  %83 = zext i32 %82 to i64
  %84 = getelementptr inbounds nuw i16, ptr %77, i64 %83
  %85 = load i16, ptr %84, align 2, !tbaa !85
  %86 = sext i16 %85 to i32
  %87 = load ptr, ptr %10, align 8, !tbaa !39
  %88 = load i32, ptr %14, align 4, !tbaa !36
  %89 = load i32, ptr %12, align 4, !tbaa !36
  %90 = mul i32 %88, %89
  %91 = load i32, ptr %16, align 4, !tbaa !36
  %92 = add i32 %90, %91
  %93 = add i32 %92, 1
  %94 = zext i32 %93 to i64
  %95 = getelementptr inbounds nuw i16, ptr %87, i64 %94
  %96 = load i16, ptr %95, align 2, !tbaa !85
  %97 = sext i16 %96 to i32
  %98 = add nsw i32 %86, %97
  %99 = load ptr, ptr %10, align 8, !tbaa !39
  %100 = load i32, ptr %14, align 4, !tbaa !36
  %101 = add i32 %100, 1
  %102 = load i32, ptr %12, align 4, !tbaa !36
  %103 = mul i32 %101, %102
  %104 = load i32, ptr %16, align 4, !tbaa !36
  %105 = add i32 %103, %104
  %106 = zext i32 %105 to i64
  %107 = getelementptr inbounds nuw i16, ptr %99, i64 %106
  %108 = load i16, ptr %107, align 2, !tbaa !85
  %109 = sext i16 %108 to i32
  %110 = add nsw i32 %98, %109
  %111 = load ptr, ptr %10, align 8, !tbaa !39
  %112 = load i32, ptr %14, align 4, !tbaa !36
  %113 = add i32 %112, 1
  %114 = load i32, ptr %12, align 4, !tbaa !36
  %115 = mul i32 %113, %114
  %116 = load i32, ptr %16, align 4, !tbaa !36
  %117 = add i32 %115, %116
  %118 = add i32 %117, 1
  %119 = zext i32 %118 to i64
  %120 = getelementptr inbounds nuw i16, ptr %111, i64 %119
  %121 = load i16, ptr %120, align 2, !tbaa !85
  %122 = sext i16 %121 to i32
  %123 = add nsw i32 %110, %122
  %124 = mul nsw i32 2, %123
  %125 = sub nsw i32 %76, %124
  %126 = load ptr, ptr %11, align 8, !tbaa !39
  %127 = load i32, ptr %14, align 4, !tbaa !36
  %128 = load i32, ptr %12, align 4, !tbaa !36
  %129 = mul i32 %127, %128
  %130 = load i32, ptr %16, align 4, !tbaa !36
  %131 = add i32 %129, %130
  %132 = zext i32 %131 to i64
  %133 = getelementptr inbounds nuw i16, ptr %126, i64 %132
  %134 = load i16, ptr %133, align 2, !tbaa !85
  %135 = sext i16 %134 to i32
  %136 = add nsw i32 %125, %135
  %137 = load ptr, ptr %11, align 8, !tbaa !39
  %138 = load i32, ptr %14, align 4, !tbaa !36
  %139 = load i32, ptr %12, align 4, !tbaa !36
  %140 = mul i32 %138, %139
  %141 = load i32, ptr %16, align 4, !tbaa !36
  %142 = add i32 %140, %141
  %143 = add i32 %142, 1
  %144 = zext i32 %143 to i64
  %145 = getelementptr inbounds nuw i16, ptr %137, i64 %144
  %146 = load i16, ptr %145, align 2, !tbaa !85
  %147 = sext i16 %146 to i32
  %148 = add nsw i32 %136, %147
  %149 = load ptr, ptr %11, align 8, !tbaa !39
  %150 = load i32, ptr %14, align 4, !tbaa !36
  %151 = add i32 %150, 1
  %152 = load i32, ptr %12, align 4, !tbaa !36
  %153 = mul i32 %151, %152
  %154 = load i32, ptr %16, align 4, !tbaa !36
  %155 = add i32 %153, %154
  %156 = zext i32 %155 to i64
  %157 = getelementptr inbounds nuw i16, ptr %149, i64 %156
  %158 = load i16, ptr %157, align 2, !tbaa !85
  %159 = sext i16 %158 to i32
  %160 = add nsw i32 %148, %159
  %161 = load ptr, ptr %11, align 8, !tbaa !39
  %162 = load i32, ptr %14, align 4, !tbaa !36
  %163 = add i32 %162, 1
  %164 = load i32, ptr %12, align 4, !tbaa !36
  %165 = mul i32 %163, %164
  %166 = load i32, ptr %16, align 4, !tbaa !36
  %167 = add i32 %165, %166
  %168 = add i32 %167, 1
  %169 = zext i32 %168 to i64
  %170 = getelementptr inbounds nuw i16, ptr %161, i64 %169
  %171 = load i16, ptr %170, align 2, !tbaa !85
  %172 = sext i16 %171 to i32
  %173 = add nsw i32 %160, %172
  store i32 %173, ptr %17, align 4, !tbaa !36
  %174 = load i32, ptr %17, align 4, !tbaa !36
  %175 = call i32 @llvm.abs.i32(i32 %174, i1 true)
  %176 = sext i32 %175 to i64
  %177 = load i64, ptr %13, align 8, !tbaa !84
  %178 = add i64 %177, %176
  store i64 %178, ptr %13, align 8, !tbaa !84
  %179 = load ptr, ptr %10, align 8, !tbaa !39
  %180 = load i32, ptr %14, align 4, !tbaa !36
  %181 = load i32, ptr %12, align 4, !tbaa !36
  %182 = mul i32 %180, %181
  %183 = load i32, ptr %16, align 4, !tbaa !36
  %184 = add i32 %182, %183
  %185 = zext i32 %184 to i64
  %186 = getelementptr inbounds nuw i16, ptr %179, i64 %185
  %187 = load i16, ptr %186, align 2, !tbaa !85
  %188 = load ptr, ptr %11, align 8, !tbaa !39
  %189 = load i32, ptr %14, align 4, !tbaa !36
  %190 = load i32, ptr %12, align 4, !tbaa !36
  %191 = mul i32 %189, %190
  %192 = load i32, ptr %16, align 4, !tbaa !36
  %193 = add i32 %191, %192
  %194 = zext i32 %193 to i64
  %195 = getelementptr inbounds nuw i16, ptr %188, i64 %194
  store i16 %187, ptr %195, align 2, !tbaa !85
  %196 = load ptr, ptr %10, align 8, !tbaa !39
  %197 = load i32, ptr %14, align 4, !tbaa !36
  %198 = add i32 %197, 1
  %199 = load i32, ptr %12, align 4, !tbaa !36
  %200 = mul i32 %198, %199
  %201 = load i32, ptr %16, align 4, !tbaa !36
  %202 = add i32 %200, %201
  %203 = zext i32 %202 to i64
  %204 = getelementptr inbounds nuw i16, ptr %196, i64 %203
  %205 = load i16, ptr %204, align 2, !tbaa !85
  %206 = load ptr, ptr %11, align 8, !tbaa !39
  %207 = load i32, ptr %14, align 4, !tbaa !36
  %208 = add i32 %207, 1
  %209 = load i32, ptr %12, align 4, !tbaa !36
  %210 = mul i32 %208, %209
  %211 = load i32, ptr %16, align 4, !tbaa !36
  %212 = add i32 %210, %211
  %213 = zext i32 %212 to i64
  %214 = getelementptr inbounds nuw i16, ptr %206, i64 %213
  store i16 %205, ptr %214, align 2, !tbaa !85
  %215 = load ptr, ptr %10, align 8, !tbaa !39
  %216 = load i32, ptr %14, align 4, !tbaa !36
  %217 = load i32, ptr %12, align 4, !tbaa !36
  %218 = mul i32 %216, %217
  %219 = load i32, ptr %16, align 4, !tbaa !36
  %220 = add i32 %218, %219
  %221 = add i32 %220, 1
  %222 = zext i32 %221 to i64
  %223 = getelementptr inbounds nuw i16, ptr %215, i64 %222
  %224 = load i16, ptr %223, align 2, !tbaa !85
  %225 = load ptr, ptr %11, align 8, !tbaa !39
  %226 = load i32, ptr %14, align 4, !tbaa !36
  %227 = load i32, ptr %12, align 4, !tbaa !36
  %228 = mul i32 %226, %227
  %229 = load i32, ptr %16, align 4, !tbaa !36
  %230 = add i32 %228, %229
  %231 = add i32 %230, 1
  %232 = zext i32 %231 to i64
  %233 = getelementptr inbounds nuw i16, ptr %225, i64 %232
  store i16 %224, ptr %233, align 2, !tbaa !85
  %234 = load ptr, ptr %10, align 8, !tbaa !39
  %235 = load i32, ptr %14, align 4, !tbaa !36
  %236 = add i32 %235, 1
  %237 = load i32, ptr %12, align 4, !tbaa !36
  %238 = mul i32 %236, %237
  %239 = load i32, ptr %16, align 4, !tbaa !36
  %240 = add i32 %238, %239
  %241 = add i32 %240, 1
  %242 = zext i32 %241 to i64
  %243 = getelementptr inbounds nuw i16, ptr %234, i64 %242
  %244 = load i16, ptr %243, align 2, !tbaa !85
  %245 = load ptr, ptr %11, align 8, !tbaa !39
  %246 = load i32, ptr %14, align 4, !tbaa !36
  %247 = add i32 %246, 1
  %248 = load i32, ptr %12, align 4, !tbaa !36
  %249 = mul i32 %247, %248
  %250 = load i32, ptr %16, align 4, !tbaa !36
  %251 = add i32 %249, %250
  %252 = add i32 %251, 1
  %253 = zext i32 %252 to i64
  %254 = getelementptr inbounds nuw i16, ptr %245, i64 %253
  store i16 %244, ptr %254, align 2, !tbaa !85
  %255 = load ptr, ptr %9, align 8, !tbaa !39
  %256 = load i32, ptr %14, align 4, !tbaa !36
  %257 = load i32, ptr %12, align 4, !tbaa !36
  %258 = mul i32 %256, %257
  %259 = load i32, ptr %16, align 4, !tbaa !36
  %260 = add i32 %258, %259
  %261 = zext i32 %260 to i64
  %262 = getelementptr inbounds nuw i16, ptr %255, i64 %261
  %263 = load i16, ptr %262, align 2, !tbaa !85
  %264 = load ptr, ptr %10, align 8, !tbaa !39
  %265 = load i32, ptr %14, align 4, !tbaa !36
  %266 = load i32, ptr %12, align 4, !tbaa !36
  %267 = mul i32 %265, %266
  %268 = load i32, ptr %16, align 4, !tbaa !36
  %269 = add i32 %267, %268
  %270 = zext i32 %269 to i64
  %271 = getelementptr inbounds nuw i16, ptr %264, i64 %270
  store i16 %263, ptr %271, align 2, !tbaa !85
  %272 = load ptr, ptr %9, align 8, !tbaa !39
  %273 = load i32, ptr %14, align 4, !tbaa !36
  %274 = add i32 %273, 1
  %275 = load i32, ptr %12, align 4, !tbaa !36
  %276 = mul i32 %274, %275
  %277 = load i32, ptr %16, align 4, !tbaa !36
  %278 = add i32 %276, %277
  %279 = zext i32 %278 to i64
  %280 = getelementptr inbounds nuw i16, ptr %272, i64 %279
  %281 = load i16, ptr %280, align 2, !tbaa !85
  %282 = load ptr, ptr %10, align 8, !tbaa !39
  %283 = load i32, ptr %14, align 4, !tbaa !36
  %284 = add i32 %283, 1
  %285 = load i32, ptr %12, align 4, !tbaa !36
  %286 = mul i32 %284, %285
  %287 = load i32, ptr %16, align 4, !tbaa !36
  %288 = add i32 %286, %287
  %289 = zext i32 %288 to i64
  %290 = getelementptr inbounds nuw i16, ptr %282, i64 %289
  store i16 %281, ptr %290, align 2, !tbaa !85
  %291 = load ptr, ptr %9, align 8, !tbaa !39
  %292 = load i32, ptr %14, align 4, !tbaa !36
  %293 = load i32, ptr %12, align 4, !tbaa !36
  %294 = mul i32 %292, %293
  %295 = load i32, ptr %16, align 4, !tbaa !36
  %296 = add i32 %294, %295
  %297 = add i32 %296, 1
  %298 = zext i32 %297 to i64
  %299 = getelementptr inbounds nuw i16, ptr %291, i64 %298
  %300 = load i16, ptr %299, align 2, !tbaa !85
  %301 = load ptr, ptr %10, align 8, !tbaa !39
  %302 = load i32, ptr %14, align 4, !tbaa !36
  %303 = load i32, ptr %12, align 4, !tbaa !36
  %304 = mul i32 %302, %303
  %305 = load i32, ptr %16, align 4, !tbaa !36
  %306 = add i32 %304, %305
  %307 = add i32 %306, 1
  %308 = zext i32 %307 to i64
  %309 = getelementptr inbounds nuw i16, ptr %301, i64 %308
  store i16 %300, ptr %309, align 2, !tbaa !85
  %310 = load ptr, ptr %9, align 8, !tbaa !39
  %311 = load i32, ptr %14, align 4, !tbaa !36
  %312 = add i32 %311, 1
  %313 = load i32, ptr %12, align 4, !tbaa !36
  %314 = mul i32 %312, %313
  %315 = load i32, ptr %16, align 4, !tbaa !36
  %316 = add i32 %314, %315
  %317 = add i32 %316, 1
  %318 = zext i32 %317 to i64
  %319 = getelementptr inbounds nuw i16, ptr %310, i64 %318
  %320 = load i16, ptr %319, align 2, !tbaa !85
  %321 = load ptr, ptr %10, align 8, !tbaa !39
  %322 = load i32, ptr %14, align 4, !tbaa !36
  %323 = add i32 %322, 1
  %324 = load i32, ptr %12, align 4, !tbaa !36
  %325 = mul i32 %323, %324
  %326 = load i32, ptr %16, align 4, !tbaa !36
  %327 = add i32 %325, %326
  %328 = add i32 %327, 1
  %329 = zext i32 %328 to i64
  %330 = getelementptr inbounds nuw i16, ptr %321, i64 %329
  store i16 %320, ptr %330, align 2, !tbaa !85
  call void @llvm.lifetime.end.p0(i64 4, ptr %17) #12
  br label %331

331:                                              ; preds = %29
  %332 = load i32, ptr %16, align 4, !tbaa !36
  %333 = add i32 %332, 2
  store i32 %333, ptr %16, align 4, !tbaa !36
  br label %24, !llvm.loop !91

334:                                              ; preds = %28
  br label %335

335:                                              ; preds = %334
  %336 = load i32, ptr %14, align 4, !tbaa !36
  %337 = add i32 %336, 2
  store i32 %337, ptr %14, align 4, !tbaa !36
  br label %18, !llvm.loop !92

338:                                              ; preds = %22
  %339 = load i64, ptr %13, align 8, !tbaa !84
  %340 = mul i64 %339, 2
  store i32 1, ptr %15, align 4
  call void @llvm.lifetime.end.p0(i64 8, ptr %13) #12
  ret i64 %340
}