; Function Attrs: nofree norecurse nosync nounwind memory(argmem: readwrite) uwtable
define internal range(i64 0, -1) i64 @diff2nd(i32 noundef %0, i32 noundef %1, ptr noundef readonly captures(none) %2, ptr noundef captures(none) %3, ptr noundef captures(none) %4, i32 noundef %5) #5 {
  %.not = icmp eq i32 %1, 0
  %.not128 = icmp eq i32 %0, 0
  %or.cond = or i1 %.not, %.not128
  br i1 %or.cond, label %._crit_edge126, label %.preheader.us.preheader

.preheader.us.preheader:                          ; preds = %6
  %7 = zext i32 %0 to i64
  br label %.preheader.us

.preheader.us:                                    ; preds = %.preheader.us.preheader, %._crit_edge.us
  %.0125.us = phi i64 [ %70, %._crit_edge.us ], [ 0, %.preheader.us.preheader ]
  %.0121124.us = phi i32 [ %79, %._crit_edge.us ], [ 0, %.preheader.us.preheader ]
  %8 = mul i32 %.0121124.us, %5
  %9 = or disjoint i32 %.0121124.us, 1
  %10 = mul i32 %9, %5
  %invariant.op.us = add i32 %10, 1
  br label %11

11:                                               ; preds = %.preheader.us, %11
  %indvars.iv = phi i64 [ 0, %.preheader.us ], [ %indvars.iv.next, %11 ]
  %.1123.us = phi i64 [ %.0125.us, %.preheader.us ], [ %70, %11 ]
  %12 = trunc nuw i64 %indvars.iv to i32
  %13 = add i32 %8, %12
  %14 = zext i32 %13 to i64
  %15 = getelementptr inbounds nuw i16, ptr %2, i64 %14
  %16 = load i16, ptr %15, align 2, !tbaa !74
  %17 = sext i16 %16 to i32
  %18 = or disjoint i32 %13, 1
  %19 = zext i32 %18 to i64
  %20 = getelementptr inbounds nuw i16, ptr %2, i64 %19
  %21 = load i16, ptr %20, align 2, !tbaa !74
  %22 = sext i16 %21 to i32
  %23 = add nsw i32 %22, %17
  %24 = add i32 %10, %12
  %25 = zext i32 %24 to i64
  %26 = getelementptr inbounds nuw i16, ptr %2, i64 %25
  %27 = load i16, ptr %26, align 2, !tbaa !74
  %28 = sext i16 %27 to i32
  %29 = add nsw i32 %23, %28
  %.reass.us = add i32 %invariant.op.us, %12
  %30 = zext i32 %.reass.us to i64
  %31 = getelementptr inbounds nuw i16, ptr %2, i64 %30
  %32 = load i16, ptr %31, align 2, !tbaa !74
  %33 = sext i16 %32 to i32
  %34 = add nsw i32 %29, %33
  %35 = getelementptr inbounds nuw i16, ptr %3, i64 %14
  %36 = load i16, ptr %35, align 2, !tbaa !74
  %37 = sext i16 %36 to i32
  %38 = getelementptr inbounds nuw i16, ptr %3, i64 %19
  %39 = load i16, ptr %38, align 2, !tbaa !74
  %40 = sext i16 %39 to i32
  %41 = add nsw i32 %40, %37
  %42 = getelementptr inbounds nuw i16, ptr %3, i64 %25
  %43 = load i16, ptr %42, align 2, !tbaa !74
  %44 = sext i16 %43 to i32
  %45 = add nsw i32 %41, %44
  %46 = getelementptr inbounds nuw i16, ptr %3, i64 %30
  %47 = load i16, ptr %46, align 2, !tbaa !74
  %48 = sext i16 %47 to i32
  %49 = add nsw i32 %45, %48
  %50 = getelementptr inbounds nuw i16, ptr %4, i64 %14
  %51 = load i16, ptr %50, align 2, !tbaa !74
  %52 = sext i16 %51 to i32
  %53 = getelementptr inbounds nuw i16, ptr %4, i64 %19
  %54 = load i16, ptr %53, align 2, !tbaa !74
  %55 = sext i16 %54 to i32
  %56 = getelementptr inbounds nuw i16, ptr %4, i64 %25
  %57 = load i16, ptr %56, align 2, !tbaa !74
  %58 = sext i16 %57 to i32
  %59 = getelementptr inbounds nuw i16, ptr %4, i64 %30
  %60 = load i16, ptr %59, align 2, !tbaa !74
  %61 = sext i16 %60 to i32
  %62 = add nsw i32 %34, %52
  %63 = shl nsw i32 %49, 1
  %64 = sub nsw i32 %62, %63
  %65 = add nsw i32 %64, %55
  %66 = add nsw i32 %65, %58
  %67 = add nsw i32 %66, %61
  %68 = tail call i32 @llvm.abs.i32(i32 %67, i1 true)
  %69 = zext nneg i32 %68 to i64
  %70 = add i64 %.1123.us, %69
  store i16 %36, ptr %50, align 2, !tbaa !74
  %71 = load i16, ptr %42, align 2, !tbaa !74
  store i16 %71, ptr %56, align 2, !tbaa !74
  %72 = load i16, ptr %38, align 2, !tbaa !74
  store i16 %72, ptr %53, align 2, !tbaa !74
  %73 = load i16, ptr %46, align 2, !tbaa !74
  store i16 %73, ptr %59, align 2, !tbaa !74
  %74 = load i16, ptr %15, align 2, !tbaa !74
  store i16 %74, ptr %35, align 2, !tbaa !74
  %75 = load i16, ptr %26, align 2, !tbaa !74
  store i16 %75, ptr %42, align 2, !tbaa !74
  %76 = load i16, ptr %20, align 2, !tbaa !74
  store i16 %76, ptr %38, align 2, !tbaa !74
  %77 = load i16, ptr %31, align 2, !tbaa !74
  store i16 %77, ptr %46, align 2, !tbaa !74
  %indvars.iv.next = add nuw nsw i64 %indvars.iv, 2
  %78 = icmp samesign ult i64 %indvars.iv.next, %7
  br i1 %78, label %11, label %._crit_edge.us, !llvm.loop !80

._crit_edge.us:                                   ; preds = %11
  %79 = add nuw i32 %.0121124.us, 2
  %80 = icmp ult i32 %79, %1
  br i1 %80, label %.preheader.us, label %._crit_edge126.loopexit129, !llvm.loop !81

._crit_edge126.loopexit129:                       ; preds = %._crit_edge.us
  %81 = shl i64 %70, 1
  br label %._crit_edge126

._crit_edge126:                                   ; preds = %._crit_edge126.loopexit129, %6
  %.0.lcssa = phi i64 [ 0, %6 ], [ %81, %._crit_edge126.loopexit129 ]
  ret i64 %.0.lcssa
}